target datalayout = "e-m:e-p270:32:32-p271:32:32-p272:64:64-i64:64-i128:128-f80:128-n8:16:32:64-S128"
target triple = "x86_64-pc-linux-gnu"

@.str.10 = private unnamed_addr constant [3 x i8] c"%s\00", align 1
@.str.17 = private unnamed_addr constant [11 x i8] c"<OVERFLOW>\00", align 1

; Function Attrs: mustprogress nounwind uwtable
define hidden void @_ZN9DwarfFile17LineNumberProgram27write_filename_for_overflowEPcm(ptr noundef %0, i64 noundef %1) #1 align 2 {
  %3 = alloca ptr, align 8
  %4 = alloca i64, align 8
  %5 = alloca i64, align 8
  store ptr %0, ptr %3, align 8
  store i64 %1, ptr %4, align 8
  store i64 11, ptr %5, align 8
  %6 = load i64, ptr %4, align 8
  %7 = icmp ule i64 11, %6
  br i1 %7, label %8, label %11

8:                                                ; preds = %2
  %9 = load ptr, ptr %3, align 8
  %10 = call i32 (ptr, i64, ptr, ...) @jio_snprintf(ptr noundef %9, i64 noundef 11, ptr noundef @.str.10, ptr noundef @.str.17)
  br label %16

11:                                               ; preds = %2
  %12 = load ptr, ptr %3, align 8
  %13 = getelementptr inbounds i8, ptr %12, i64 0
  store i8 76, ptr %13, align 1
  %14 = load ptr, ptr %3, align 8
  %15 = getelementptr inbounds i8, ptr %14, i64 1
  store i8 0, ptr %15, align 1
  br label %16

16:                                               ; preds = %11, %8
  ret void
}