; Function Attrs: mustprogress nounwind uwtable
define hidden void @_ZN9DwarfFile17LineNumberProgram27write_filename_for_overflowEPcm(ptr noundef %0, i64 noundef %1) local_unnamed_addr #0 align 2 {
  %3 = icmp ugt i64 %1, 10
  br i1 %3, label %4, label %6

4:                                                ; preds = %2
  %5 = tail call i32 (ptr, i64, ptr, ...) @jio_snprintf(ptr noundef %0, i64 noundef 11, ptr noundef nonnull @.str.10, ptr noundef nonnull @.str.17) #15
  br label %8

6:                                                ; preds = %2
  store i8 76, ptr %0, align 1
  %7 = getelementptr inbounds i8, ptr %0, i64 1
  store i8 0, ptr %7, align 1
  br label %8

8:                                                ; preds = %6, %4
  ret void
}